; Function Attrs: null_pointer_is_valid sspstrong uwtable
define hidden void @column_prefs_remove_nth(i32 noundef %0) local_unnamed_addr #1 {
  %2 = load ptr, ptr @prefs, align 8
  %3 = tail call ptr @g_list_nth(ptr noundef %2, i32 noundef %0)
  %.not.i = icmp eq ptr %3, null
  br i1 %.not.i, label %column_prefs_remove_link.exit, label %4

4:                                                ; preds = %1
  %5 = load ptr, ptr %3, align 8
  %.not9.i = icmp eq ptr %5, null
  br i1 %.not9.i, label %column_prefs_remove_link.exit, label %6

6:                                                ; preds = %4
  %7 = load ptr, ptr %5, align 8
  tail call void @g_free(ptr noundef %7)
  %8 = getelementptr inbounds nuw i8, ptr %5, i64 16
  %9 = load ptr, ptr %8, align 8
  tail call void @g_free(ptr noundef %9)
  tail call void @g_free(ptr noundef nonnull %5)
  %10 = load ptr, ptr @prefs, align 8
  %11 = tail call ptr @g_list_remove_link(ptr noundef %10, ptr noundef nonnull %3)
  store ptr %11, ptr @prefs, align 8
  tail call void @g_list_free_1(ptr noundef nonnull %3)
  br label %column_prefs_remove_link.exit

column_prefs_remove_link.exit:                    ; preds = %1, %4, %6
  tail call void @recent_remove_column(i32 noundef %0)
  ret void
}